
CSRTest.om:     file format elf32-littleriscv


Disassembly of section .text:

00010080 <_start>:
   10080:	00000013          	nop
   10084:	00100293          	li	t0,1
   10088:	00200313          	li	t1,2
   1008c:	00300393          	li	t2,3
   10090:	00400e13          	li	t3,4
   10094:	00500e93          	li	t4,5

00010098 <test_1>:
   10098:	00100193          	li	gp,1
   1009c:	00100513          	li	a0,1
   100a0:	00129573          	fsflags	a0,t0
   100a4:	00000013          	nop
   100a8:	00000013          	nop
   100ac:	00000013          	nop
   100b0:	00050463          	beqz	a0,100b8 <test_2>
   100b4:	2a80006f          	j	1035c <fail>

000100b8 <test_2>:
   100b8:	00200193          	li	gp,2
   100bc:	00100513          	li	a0,1
   100c0:	00229573          	fsrm	a0,t0
   100c4:	00000013          	nop
   100c8:	00000013          	nop
   100cc:	00050463          	beqz	a0,100d4 <test_3>
   100d0:	28c0006f          	j	1035c <fail>

000100d4 <test_3>:
   100d4:	00300193          	li	gp,3
   100d8:	00100513          	li	a0,1
   100dc:	00329573          	fssr	a0,t0
   100e0:	00000013          	nop
   100e4:	00050463          	beqz	a0,100ec <test_4>
   100e8:	2740006f          	j	1035c <fail>

000100ec <test_4>:
   100ec:	00400193          	li	gp,4
   100f0:	00100513          	li	a0,1
   100f4:	00429573          	csrrw	a0,uie,t0
   100f8:	00050463          	beqz	a0,10100 <test_5>
   100fc:	2600006f          	j	1035c <fail>

00010100 <test_5>:
   10100:	00500193          	li	gp,5
   10104:	00000513          	li	a0,0
   10108:	005315f3          	csrrw	a1,utvec,t1
   1010c:	00000013          	nop
   10110:	00000013          	nop
   10114:	00000013          	nop
   10118:	005295f3          	csrrw	a1,utvec,t0
   1011c:	00658463          	beq	a1,t1,10124 <test_6>
   10120:	23c0006f          	j	1035c <fail>

00010124 <test_6>:
   10124:	00600193          	li	gp,6
   10128:	00000513          	li	a0,0
   1012c:	006315f3          	csrrw	a1,0x6,t1
   10130:	00000013          	nop
   10134:	00000013          	nop
   10138:	006295f3          	csrrw	a1,0x6,t0
   1013c:	00658463          	beq	a1,t1,10144 <test_7>
   10140:	21c0006f          	j	1035c <fail>

00010144 <test_7>:
   10144:	00700193          	li	gp,7
   10148:	00000513          	li	a0,0
   1014c:	007315f3          	csrrw	a1,0x7,t1
   10150:	00000013          	nop
   10154:	007295f3          	csrrw	a1,0x7,t0
   10158:	00658463          	beq	a1,t1,10160 <test_8>
   1015c:	2000006f          	j	1035c <fail>

00010160 <test_8>:
   10160:	00800193          	li	gp,8
   10164:	00000513          	li	a0,0
   10168:	008315f3          	csrrw	a1,0x8,t1
   1016c:	008295f3          	csrrw	a1,0x8,t0
   10170:	00658463          	beq	a1,t1,10178 <test_9>
   10174:	1e80006f          	j	1035c <fail>

00010178 <test_9>:
   10178:	00900193          	li	gp,9
   1017c:	00200593          	li	a1,2
   10180:	009055f3          	csrrwi	a1,0x9,0
   10184:	00000013          	nop
   10188:	00000013          	nop
   1018c:	00000013          	nop
   10190:	00058463          	beqz	a1,10198 <test_10>
   10194:	1c80006f          	j	1035c <fail>

00010198 <test_10>:
   10198:	00a00193          	li	gp,10
   1019c:	00200593          	li	a1,2
   101a0:	00a055f3          	csrrwi	a1,0xa,0
   101a4:	00000013          	nop
   101a8:	00000013          	nop
   101ac:	00058463          	beqz	a1,101b4 <test_11>
   101b0:	1ac0006f          	j	1035c <fail>

000101b4 <test_11>:
   101b4:	00b00193          	li	gp,11
   101b8:	00200593          	li	a1,2
   101bc:	00b055f3          	csrrwi	a1,0xb,0
   101c0:	00000013          	nop
   101c4:	00058463          	beqz	a1,101cc <test_12>
   101c8:	1940006f          	j	1035c <fail>

000101cc <test_12>:
   101cc:	00c00193          	li	gp,12
   101d0:	00200593          	li	a1,2
   101d4:	00c055f3          	csrrwi	a1,0xc,0
   101d8:	00058463          	beqz	a1,101e0 <test_13>
   101dc:	1800006f          	j	1035c <fail>

000101e0 <test_13>:
   101e0:	00d00193          	li	gp,13
   101e4:	00d2d5f3          	csrrwi	a1,0xd,5
   101e8:	00000013          	nop
   101ec:	00000013          	nop
   101f0:	00000013          	nop
   101f4:	00000013          	nop
   101f8:	00d29673          	csrrw	a2,0xd,t0
   101fc:	01d60463          	beq	a2,t4,10204 <test_14>
   10200:	15c0006f          	j	1035c <fail>

00010204 <test_14>:
   10204:	00e00193          	li	gp,14
   10208:	00e2d5f3          	csrrwi	a1,0xe,5
   1020c:	00000013          	nop
   10210:	00000013          	nop
   10214:	00000013          	nop
   10218:	00e29673          	csrrw	a2,0xe,t0
   1021c:	01d60463          	beq	a2,t4,10224 <test_15>
   10220:	13c0006f          	j	1035c <fail>

00010224 <test_15>:
   10224:	00f00193          	li	gp,15
   10228:	00f2d5f3          	csrrwi	a1,0xf,5
   1022c:	00000013          	nop
   10230:	00000013          	nop
   10234:	00f29673          	csrrw	a2,0xf,t0
   10238:	01d60463          	beq	a2,t4,10240 <test_16>
   1023c:	1200006f          	j	1035c <fail>

00010240 <test_16>:
   10240:	01000193          	li	gp,16
   10244:	0102d5f3          	csrrwi	a1,0x10,5
   10248:	00000013          	nop
   1024c:	01029673          	csrrw	a2,0x10,t0
   10250:	01d60463          	beq	a2,t4,10258 <test_17>
   10254:	1080006f          	j	1035c <fail>

00010258 <test_17>:
   10258:	01100193          	li	gp,17
   1025c:	0112d5f3          	csrrwi	a1,0x11,5
   10260:	01129673          	csrrw	a2,0x11,t0
   10264:	01d60463          	beq	a2,t4,1026c <test_18>
   10268:	0f40006f          	j	1035c <fail>

0001026c <test_18>:
   1026c:	01200193          	li	gp,18
   10270:	000106b7          	lui	a3,0x10
   10274:	00168693          	addi	a3,a3,1 # 10001 <_start-0x7f>
   10278:	01269573          	csrrw	a0,0x12,a3
   1027c:	00f00513          	li	a0,15
   10280:	012525f3          	csrrs	a1,0x12,a0
   10284:	00010637          	lui	a2,0x10
   10288:	00160613          	addi	a2,a2,1 # 10001 <_start-0x7f>
   1028c:	00c58463          	beq	a1,a2,10294 <test_18_2>
   10290:	0cc0006f          	j	1035c <fail>

00010294 <test_18_2>:
   10294:	01259573          	csrrw	a0,0x12,a1
   10298:	000105b7          	lui	a1,0x10
   1029c:	00f58593          	addi	a1,a1,15 # 1000f <_start-0x71>
   102a0:	00b50463          	beq	a0,a1,102a8 <test_19>
   102a4:	0b80006f          	j	1035c <fail>

000102a8 <test_19>:
   102a8:	01300193          	li	gp,19
   102ac:	000106b7          	lui	a3,0x10
   102b0:	00168693          	addi	a3,a3,1 # 10001 <_start-0x7f>
   102b4:	01369573          	csrrw	a0,0x13,a3
   102b8:	0137e5f3          	csrrsi	a1,0x13,15
   102bc:	00010637          	lui	a2,0x10
   102c0:	00160613          	addi	a2,a2,1 # 10001 <_start-0x7f>
   102c4:	00c58463          	beq	a1,a2,102cc <test_19_2>
   102c8:	0940006f          	j	1035c <fail>

000102cc <test_19_2>:
   102cc:	013015f3          	csrrw	a1,0x13,zero
   102d0:	00010637          	lui	a2,0x10
   102d4:	00f60613          	addi	a2,a2,15 # 1000f <_start-0x71>
   102d8:	00c58463          	beq	a1,a2,102e0 <test_20>
   102dc:	0800006f          	j	1035c <fail>

000102e0 <test_20>:
   102e0:	01400193          	li	gp,20
   102e4:	000106b7          	lui	a3,0x10
   102e8:	00f68693          	addi	a3,a3,15 # 1000f <_start-0x71>
   102ec:	01469573          	csrrw	a0,0x14,a3
   102f0:	00100513          	li	a0,1
   102f4:	014535f3          	csrrc	a1,0x14,a0
   102f8:	00010637          	lui	a2,0x10
   102fc:	00f60613          	addi	a2,a2,15 # 1000f <_start-0x71>
   10300:	00c58463          	beq	a1,a2,10308 <test_20_2>
   10304:	0580006f          	j	1035c <fail>

00010308 <test_20_2>:
   10308:	01459573          	csrrw	a0,0x14,a1
   1030c:	000105b7          	lui	a1,0x10
   10310:	00e58593          	addi	a1,a1,14 # 1000e <_start-0x72>
   10314:	00b50463          	beq	a0,a1,1031c <test_21>
   10318:	0440006f          	j	1035c <fail>

0001031c <test_21>:
   1031c:	01500193          	li	gp,21
   10320:	000106b7          	lui	a3,0x10
   10324:	00f68693          	addi	a3,a3,15 # 1000f <_start-0x71>
   10328:	01569573          	csrrw	a0,0x15,a3
   1032c:	0150f5f3          	csrrci	a1,0x15,1
   10330:	00010637          	lui	a2,0x10
   10334:	00f60613          	addi	a2,a2,15 # 1000f <_start-0x71>
   10338:	00c58463          	beq	a1,a2,10340 <test_21_2>
   1033c:	0200006f          	j	1035c <fail>

00010340 <test_21_2>:
   10340:	015015f3          	csrrw	a1,0x15,zero
   10344:	00010637          	lui	a2,0x10
   10348:	00e60613          	addi	a2,a2,14 # 1000e <_start-0x72>
   1034c:	00c58463          	beq	a1,a2,10354 <success>
   10350:	00c0006f          	j	1035c <fail>

00010354 <success>:
   10354:	00100193          	li	gp,1
   10358:	ffdff06f          	j	10354 <success>

0001035c <fail>:
   1035c:	00000013          	nop
   10360:	ffdff06f          	j	1035c <fail>
	...
